target datalayout = "e-m:e-p270:32:32-p271:32:32-p272:64:64-i64:64-i128:128-f80:128-n8:16:32:64-S128"
target triple = "x86_64-pc-linux-gnu"

%"class.std::__cxx11::basic_string" = type { %"struct.std::__cxx11::basic_string<char>::_Alloc_hider", i64, %union.anon }
%"struct.std::__cxx11::basic_string<char>::_Alloc_hider" = type { ptr }
%union.anon = type { i64, [8 x i8] }
%"class.std::vector" = type { %"struct.std::_Vector_base" }
%"struct.std::_Vector_base" = type { %"struct.std::_Vector_base<std::__cxx11::basic_string<char>, std::allocator<std::__cxx11::basic_string<char>>>::_Vector_impl" }
%"struct.std::_Vector_base<std::__cxx11::basic_string<char>, std::allocator<std::__cxx11::basic_string<char>>>::_Vector_impl" = type { %"struct.std::_Vector_base<std::__cxx11::basic_string<char>, std::allocator<std::__cxx11::basic_string<char>>>::_Vector_impl_data" }
%"struct.std::_Vector_base<std::__cxx11::basic_string<char>, std::allocator<std::__cxx11::basic_string<char>>>::_Vector_impl_data" = type { ptr, ptr, ptr }
%"class.Json::StyledStreamWriter" = type <{ %"class.std::vector", ptr, %"class.std::__cxx11::basic_string", i32, [4 x i8], %"class.std::__cxx11::basic_string", i8, [7 x i8] }>

; Function Attrs: mustprogress uwtable
define dso_local void @_ZN4Json18StyledStreamWriter11writeIndentEv(ptr noundef nonnull align 8 dereferenceable(105) %0) #0 align 2 {
  %2 = alloca ptr, align 8
  store ptr %0, ptr %2, align 8
  %3 = load ptr, ptr %2, align 8
  %4 = getelementptr inbounds %"class.Json::StyledStreamWriter", ptr %3, i32 0, i32 1
  %5 = load ptr, ptr %4, align 8
  %6 = call noundef nonnull align 8 dereferenceable(8) ptr @_ZStlsISt11char_traitsIcEERSt13basic_ostreamIcT_ES5_c(ptr noundef nonnull align 8 dereferenceable(8) %5, i8 noundef signext 10)
  %7 = getelementptr inbounds %"class.Json::StyledStreamWriter", ptr %3, i32 0, i32 2
  %8 = call noundef nonnull align 8 dereferenceable(8) ptr @_ZStlsIcSt11char_traitsIcESaIcEERSt13basic_ostreamIT_T0_ES7_RKNSt7__cxx1112basic_stringIS4_S5_T1_EE(ptr noundef nonnull align 8 dereferenceable(8) %6, ptr noundef nonnull align 8 dereferenceable(32) %7)
  ret void
}

; Function Attrs: mustprogress uwtable
define dso_local void @_ZN4Json18StyledStreamWriter32writeCommentAfterValueOnSameLineERKNS_5ValueE(ptr noundef nonnull align 8 dereferenceable(105) %0, ptr noundef nonnull align 8 dereferenceable(40) %1) #0 align 2 personality ptr @__gxx_personality_v0 {
  %3 = alloca ptr, align 8
  %4 = alloca ptr, align 8
  %5 = alloca %"class.std::__cxx11::basic_string", align 8
  %6 = alloca ptr, align 8
  %7 = alloca i32, align 4
  %8 = alloca %"class.std::__cxx11::basic_string", align 8
  store ptr %0, ptr %3, align 8
  store ptr %1, ptr %4, align 8
  %9 = load ptr, ptr %3, align 8
  %10 = load ptr, ptr %4, align 8
  %11 = call noundef zeroext i1 @_ZNK4Json5Value10hasCommentENS_16CommentPlacementE(ptr noundef nonnull align 8 dereferenceable(40) %10, i32 noundef 1)
  br i1 %11, label %12, label %23

12:                                               ; preds = %2
  %13 = getelementptr inbounds %"class.Json::StyledStreamWriter", ptr %9, i32 0, i32 1
  %14 = load ptr, ptr %13, align 8
  %15 = call noundef nonnull align 8 dereferenceable(8) ptr @_ZStlsISt11char_traitsIcEERSt13basic_ostreamIcT_ES5_c(ptr noundef nonnull align 8 dereferenceable(8) %14, i8 noundef signext 32)
  %16 = load ptr, ptr %4, align 8
  call void @_ZNK4Json5Value10getCommentB5cxx11ENS_16CommentPlacementE(ptr dead_on_unwind writable sret(%"class.std::__cxx11::basic_string") align 8 %5, ptr noundef nonnull align 8 dereferenceable(40) %16, i32 noundef 1)
  %17 = invoke noundef nonnull align 8 dereferenceable(8) ptr @_ZStlsIcSt11char_traitsIcESaIcEERSt13basic_ostreamIT_T0_ES7_RKNSt7__cxx1112basic_stringIS4_S5_T1_EE(ptr noundef nonnull align 8 dereferenceable(8) %15, ptr noundef nonnull align 8 dereferenceable(32) %5)
          to label %18 unwind label %19

18:                                               ; preds = %12
  call void @_ZNSt7__cxx1112basic_stringIcSt11char_traitsIcESaIcEED1Ev(ptr noundef nonnull align 8 dereferenceable(32) %5) #9
  br label %23

19:                                               ; preds = %12
  %20 = landingpad { ptr, i32 }
          cleanup
  %21 = extractvalue { ptr, i32 } %20, 0
  store ptr %21, ptr %6, align 8
  %22 = extractvalue { ptr, i32 } %20, 1
  store i32 %22, ptr %7, align 4
  call void @_ZNSt7__cxx1112basic_stringIcSt11char_traitsIcESaIcEED1Ev(ptr noundef nonnull align 8 dereferenceable(32) %5) #9
  br label %41

23:                                               ; preds = %18, %2
  %24 = load ptr, ptr %4, align 8
  %25 = call noundef zeroext i1 @_ZNK4Json5Value10hasCommentENS_16CommentPlacementE(ptr noundef nonnull align 8 dereferenceable(40) %24, i32 noundef 2)
  br i1 %25, label %26, label %36

26:                                               ; preds = %23
  call void @_ZN4Json18StyledStreamWriter11writeIndentEv(ptr noundef nonnull align 8 dereferenceable(105) %9)
  %27 = getelementptr inbounds %"class.Json::StyledStreamWriter", ptr %9, i32 0, i32 1
  %28 = load ptr, ptr %27, align 8
  %29 = load ptr, ptr %4, align 8
  call void @_ZNK4Json5Value10getCommentB5cxx11ENS_16CommentPlacementE(ptr dead_on_unwind writable sret(%"class.std::__cxx11::basic_string") align 8 %8, ptr noundef nonnull align 8 dereferenceable(40) %29, i32 noundef 2)
  %30 = invoke noundef nonnull align 8 dereferenceable(8) ptr @_ZStlsIcSt11char_traitsIcESaIcEERSt13basic_ostreamIT_T0_ES7_RKNSt7__cxx1112basic_stringIS4_S5_T1_EE(ptr noundef nonnull align 8 dereferenceable(8) %28, ptr noundef nonnull align 8 dereferenceable(32) %8)
          to label %31 unwind label %32

31:                                               ; preds = %26
  call void @_ZNSt7__cxx1112basic_stringIcSt11char_traitsIcESaIcEED1Ev(ptr noundef nonnull align 8 dereferenceable(32) %8) #9
  br label %36

32:                                               ; preds = %26
  %33 = landingpad { ptr, i32 }
          cleanup
  %34 = extractvalue { ptr, i32 } %33, 0
  store ptr %34, ptr %6, align 8
  %35 = extractvalue { ptr, i32 } %33, 1
  store i32 %35, ptr %7, align 4
  call void @_ZNSt7__cxx1112basic_stringIcSt11char_traitsIcESaIcEED1Ev(ptr noundef nonnull align 8 dereferenceable(32) %8) #9
  br label %41

36:                                               ; preds = %31, %23
  %37 = getelementptr inbounds %"class.Json::StyledStreamWriter", ptr %9, i32 0, i32 6
  %38 = load i8, ptr %37, align 8
  %39 = and i8 %38, -3
  %40 = or i8 %39, 0
  store i8 %40, ptr %37, align 8
  ret void

41:                                               ; preds = %32, %19
  %42 = load ptr, ptr %6, align 8
  %43 = load i32, ptr %7, align 4
  %44 = insertvalue { ptr, i32 } poison, ptr %42, 0
  %45 = insertvalue { ptr, i32 } %44, i32 %43, 1
  resume { ptr, i32 } %45
}