; Function Attrs: mustprogress uwtable
define dso_local void @_ZN4Json18StyledStreamWriter32writeCommentAfterValueOnSameLineERKNS_5ValueE(ptr noundef nonnull align 8 dereferenceable(105) %0, ptr noundef nonnull align 8 dereferenceable(40) %1) local_unnamed_addr #0 align 2 personality ptr @__gxx_personality_v0 {
  %3 = alloca %"class.std::__cxx11::basic_string", align 8
  %4 = alloca %"class.std::__cxx11::basic_string", align 8
  %5 = tail call noundef zeroext i1 @_ZNK4Json5Value10hasCommentENS_16CommentPlacementE(ptr noundef nonnull align 8 dereferenceable(40) %1, i32 noundef 1)
  br i1 %5, label %6, label %14

6:                                                ; preds = %2
  %7 = getelementptr inbounds i8, ptr %0, i64 24
  %8 = load ptr, ptr %7, align 8
  %9 = tail call noundef nonnull align 8 dereferenceable(8) ptr @_ZStlsISt11char_traitsIcEERSt13basic_ostreamIcT_ES5_c(ptr noundef nonnull align 8 dereferenceable(8) %8, i8 noundef signext 32)
  call void @_ZNK4Json5Value10getCommentB5cxx11ENS_16CommentPlacementE(ptr dead_on_unwind nonnull writable sret(%"class.std::__cxx11::basic_string") align 8 %3, ptr noundef nonnull align 8 dereferenceable(40) %1, i32 noundef 1)
  %10 = invoke noundef nonnull align 8 dereferenceable(8) ptr @_ZStlsIcSt11char_traitsIcESaIcEERSt13basic_ostreamIT_T0_ES7_RKNSt7__cxx1112basic_stringIS4_S5_T1_EE(ptr noundef nonnull align 8 dereferenceable(8) %9, ptr noundef nonnull align 8 dereferenceable(32) %3)
          to label %11 unwind label %12

11:                                               ; preds = %6
  call void @_ZNSt7__cxx1112basic_stringIcSt11char_traitsIcESaIcEED1Ev(ptr noundef nonnull align 8 dereferenceable(32) %3) #19
  br label %14

12:                                               ; preds = %6
  %13 = landingpad { ptr, i32 }
          cleanup
  br label %31

14:                                               ; preds = %11, %2
  %15 = call noundef zeroext i1 @_ZNK4Json5Value10hasCommentENS_16CommentPlacementE(ptr noundef nonnull align 8 dereferenceable(40) %1, i32 noundef 2)
  br i1 %15, label %16, label %27

16:                                               ; preds = %14
  %17 = getelementptr inbounds i8, ptr %0, i64 24
  %18 = load ptr, ptr %17, align 8
  %19 = call noundef nonnull align 8 dereferenceable(8) ptr @_ZStlsISt11char_traitsIcEERSt13basic_ostreamIcT_ES5_c(ptr noundef nonnull align 8 dereferenceable(8) %18, i8 noundef signext 10)
  %20 = getelementptr inbounds i8, ptr %0, i64 32
  %21 = call noundef nonnull align 8 dereferenceable(8) ptr @_ZStlsIcSt11char_traitsIcESaIcEERSt13basic_ostreamIT_T0_ES7_RKNSt7__cxx1112basic_stringIS4_S5_T1_EE(ptr noundef nonnull align 8 dereferenceable(8) %19, ptr noundef nonnull align 8 dereferenceable(32) %20)
  %22 = load ptr, ptr %17, align 8
  call void @_ZNK4Json5Value10getCommentB5cxx11ENS_16CommentPlacementE(ptr dead_on_unwind nonnull writable sret(%"class.std::__cxx11::basic_string") align 8 %4, ptr noundef nonnull align 8 dereferenceable(40) %1, i32 noundef 2)
  %23 = invoke noundef nonnull align 8 dereferenceable(8) ptr @_ZStlsIcSt11char_traitsIcESaIcEERSt13basic_ostreamIT_T0_ES7_RKNSt7__cxx1112basic_stringIS4_S5_T1_EE(ptr noundef nonnull align 8 dereferenceable(8) %22, ptr noundef nonnull align 8 dereferenceable(32) %4)
          to label %24 unwind label %25

24:                                               ; preds = %16
  call void @_ZNSt7__cxx1112basic_stringIcSt11char_traitsIcESaIcEED1Ev(ptr noundef nonnull align 8 dereferenceable(32) %4) #19
  br label %27

25:                                               ; preds = %16
  %26 = landingpad { ptr, i32 }
          cleanup
  br label %31

27:                                               ; preds = %24, %14
  %28 = getelementptr inbounds i8, ptr %0, i64 104
  %29 = load i8, ptr %28, align 8
  %30 = and i8 %29, -3
  store i8 %30, ptr %28, align 8
  ret void

31:                                               ; preds = %25, %12
  %.sink = phi ptr [ %4, %25 ], [ %3, %12 ]
  %.pn = phi { ptr, i32 } [ %26, %25 ], [ %13, %12 ]
  call void @_ZNSt7__cxx1112basic_stringIcSt11char_traitsIcESaIcEED1Ev(ptr noundef nonnull align 8 dereferenceable(32) %.sink) #19
  resume { ptr, i32 } %.pn
}